target datalayout = "e-m:e-p270:32:32-p271:32:32-p272:64:64-i64:64-i128:128-f80:128-n8:16:32:64-S128"
target triple = "x86_64-pc-linux-gnu"

%struct.H5FD_onion_archival_index_t = type { i8, i32, i64, ptr }
%struct.H5FD_onion_index_entry_t = type { i64, i64 }

@H5FD_init_g = external global i8, align 1
@H5_libterm_g = external global i8, align 1

; Function Attrs: nounwind uwtable
define i32 @H5FD__onion_archival_index_find(ptr noundef %0, i64 noundef %1, ptr noundef %2) #0 {
  %4 = alloca ptr, align 8
  %5 = alloca i64, align 8
  %6 = alloca ptr, align 8
  %7 = alloca i64, align 8
  %8 = alloca i64, align 8
  %9 = alloca i64, align 8
  %10 = alloca i64, align 8
  %11 = alloca ptr, align 8
  %12 = alloca i32, align 4
  store ptr %0, ptr %4, align 8, !tbaa !56
  store i64 %1, ptr %5, align 8, !tbaa !12
  store ptr %2, ptr %6, align 8, !tbaa !62
  call void @llvm.lifetime.start.p0(i64 8, ptr %7) #9
  store i64 0, ptr %7, align 8, !tbaa !12
  call void @llvm.lifetime.start.p0(i64 8, ptr %8) #9
  store i64 0, ptr %8, align 8, !tbaa !12
  call void @llvm.lifetime.start.p0(i64 8, ptr %9) #9
  store i64 0, ptr %9, align 8, !tbaa !12
  call void @llvm.lifetime.start.p0(i64 8, ptr %10) #9
  store i64 0, ptr %10, align 8, !tbaa !12
  call void @llvm.lifetime.start.p0(i64 8, ptr %11) #9
  store ptr null, ptr %11, align 8, !tbaa !49
  call void @llvm.lifetime.start.p0(i64 4, ptr %12) #9
  store i32 0, ptr %12, align 4, !tbaa !16
  %13 = load i8, ptr @H5FD_init_g, align 1, !tbaa !18, !range !20, !noundef !21
  %14 = trunc i8 %13 to i1
  br i1 %14, label %19, label %15

15:                                               ; preds = %3
  %16 = load i8, ptr @H5_libterm_g, align 1, !tbaa !18, !range !20, !noundef !21
  %17 = trunc i8 %16 to i1
  %18 = xor i1 %17, true
  br label %19

19:                                               ; preds = %15, %3
  %20 = phi i1 [ true, %3 ], [ %18, %15 ]
  %21 = xor i1 %20, true
  %22 = xor i1 %21, true
  %23 = zext i1 %22 to i32
  %24 = sext i32 %23 to i64
  %25 = call i64 @llvm.expect.i64(i64 %24, i64 1)
  %26 = icmp ne i64 %25, 0
  br i1 %26, label %27, label %148

27:                                               ; preds = %19
  %28 = load ptr, ptr %4, align 8, !tbaa !56
  %29 = getelementptr inbounds nuw %struct.H5FD_onion_archival_index_t, ptr %28, i32 0, i32 2
  %30 = load i64, ptr %29, align 8, !tbaa !60
  %31 = icmp ne i64 %30, 0
  br i1 %31, label %32, label %33

32:                                               ; preds = %27
  br label %33

33:                                               ; preds = %32, %27
  %34 = load ptr, ptr %4, align 8, !tbaa !56
  %35 = getelementptr inbounds nuw %struct.H5FD_onion_archival_index_t, ptr %34, i32 0, i32 2
  %36 = load i64, ptr %35, align 8, !tbaa !60
  %37 = sub i64 %36, 1
  store i64 %37, ptr %8, align 8, !tbaa !12
  %38 = load i64, ptr %8, align 8, !tbaa !12
  store i64 %38, ptr %10, align 8, !tbaa !12
  %39 = load ptr, ptr %4, align 8, !tbaa !56
  %40 = getelementptr inbounds nuw %struct.H5FD_onion_archival_index_t, ptr %39, i32 0, i32 2
  %41 = load i64, ptr %40, align 8, !tbaa !60
  %42 = icmp eq i64 %41, 0
  br i1 %42, label %62, label %43

43:                                               ; preds = %33
  %44 = load i64, ptr %5, align 8, !tbaa !12
  %45 = load ptr, ptr %4, align 8, !tbaa !56
  %46 = getelementptr inbounds nuw %struct.H5FD_onion_archival_index_t, ptr %45, i32 0, i32 3
  %47 = load ptr, ptr %46, align 8, !tbaa !59
  %48 = load i64, ptr %8, align 8, !tbaa !12
  %49 = getelementptr inbounds nuw %struct.H5FD_onion_index_entry_t, ptr %47, i64 %48
  %50 = getelementptr inbounds nuw %struct.H5FD_onion_index_entry_t, ptr %49, i32 0, i32 0
  %51 = load i64, ptr %50, align 8, !tbaa !50
  %52 = icmp ugt i64 %44, %51
  br i1 %52, label %62, label %53

53:                                               ; preds = %43
  %54 = load i64, ptr %5, align 8, !tbaa !12
  %55 = load ptr, ptr %4, align 8, !tbaa !56
  %56 = getelementptr inbounds nuw %struct.H5FD_onion_archival_index_t, ptr %55, i32 0, i32 3
  %57 = load ptr, ptr %56, align 8, !tbaa !59
  %58 = getelementptr inbounds %struct.H5FD_onion_index_entry_t, ptr %57, i64 0
  %59 = getelementptr inbounds nuw %struct.H5FD_onion_index_entry_t, ptr %58, i32 0, i32 0
  %60 = load i64, ptr %59, align 8, !tbaa !50
  %61 = icmp ult i64 %54, %60
  br i1 %61, label %62, label %66

62:                                               ; preds = %53, %43, %33
  br label %63

63:                                               ; preds = %62
  store i32 0, ptr %12, align 4, !tbaa !16
  br label %147

64:                                               ; No predecessors!
  br label %65

65:                                               ; preds = %64
  br label %66

66:                                               ; preds = %65, %53
  br label %67

67:                                               ; preds = %117, %66
  %68 = load i64, ptr %10, align 8, !tbaa !12
  %69 = icmp ugt i64 %68, 0
  br i1 %69, label %70, label %121

70:                                               ; preds = %67
  %71 = load i64, ptr %7, align 8, !tbaa !12
  %72 = load i64, ptr %10, align 8, !tbaa !12
  %73 = udiv i64 %72, 2
  %74 = add i64 %71, %73
  store i64 %74, ptr %9, align 8, !tbaa !12
  %75 = load ptr, ptr %4, align 8, !tbaa !56
  %76 = getelementptr inbounds nuw %struct.H5FD_onion_archival_index_t, ptr %75, i32 0, i32 3
  %77 = load ptr, ptr %76, align 8, !tbaa !59
  %78 = load i64, ptr %9, align 8, !tbaa !12
  %79 = getelementptr inbounds nuw %struct.H5FD_onion_index_entry_t, ptr %77, i64 %78
  store ptr %79, ptr %11, align 8, !tbaa !49
  %80 = load ptr, ptr %11, align 8, !tbaa !49
  %81 = getelementptr inbounds nuw %struct.H5FD_onion_index_entry_t, ptr %80, i32 0, i32 0
  %82 = load i64, ptr %81, align 8, !tbaa !50
  %83 = load i64, ptr %5, align 8, !tbaa !12
  %84 = icmp eq i64 %82, %83
  br i1 %84, label %85, label %88

85:                                               ; preds = %70
  %86 = load ptr, ptr %11, align 8, !tbaa !49
  %87 = load ptr, ptr %6, align 8, !tbaa !62
  store ptr %86, ptr %87, align 8, !tbaa !49
  store i32 1, ptr %12, align 4, !tbaa !16
  br label %147

88:                                               ; preds = %70
  %89 = load ptr, ptr %11, align 8, !tbaa !49
  %90 = getelementptr inbounds nuw %struct.H5FD_onion_index_entry_t, ptr %89, i32 0, i32 0
  %91 = load i64, ptr %90, align 8, !tbaa !50
  %92 = load i64, ptr %5, align 8, !tbaa !12
  %93 = icmp ult i64 %91, %92
  br i1 %93, label %94, label %105

94:                                               ; preds = %88
  %95 = load i64, ptr %9, align 8, !tbaa !12
  %96 = load i64, ptr %8, align 8, !tbaa !12
  %97 = icmp eq i64 %95, %96
  br i1 %97, label %98, label %100

98:                                               ; preds = %94
  %99 = load i64, ptr %8, align 8, !tbaa !12
  br label %103

100:                                              ; preds = %94
  %101 = load i64, ptr %9, align 8, !tbaa !12
  %102 = add i64 %101, 1
  br label %103

103:                                              ; preds = %100, %98
  %104 = phi i64 [ %99, %98 ], [ %102, %100 ]
  store i64 %104, ptr %7, align 8, !tbaa !12
  br label %116

105:                                              ; preds = %88
  %106 = load i64, ptr %9, align 8, !tbaa !12
  %107 = load i64, ptr %7, align 8, !tbaa !12
  %108 = icmp eq i64 %106, %107
  br i1 %108, label %109, label %111

109:                                              ; preds = %105
  %110 = load i64, ptr %7, align 8, !tbaa !12
  br label %114

111:                                              ; preds = %105
  %112 = load i64, ptr %9, align 8, !tbaa !12
  %113 = sub i64 %112, 1
  br label %114

114:                                              ; preds = %111, %109
  %115 = phi i64 [ %110, %109 ], [ %113, %111 ]
  store i64 %115, ptr %8, align 8, !tbaa !12
  br label %116

116:                                              ; preds = %114, %103
  br label %117

117:                                              ; preds = %116
  %118 = load i64, ptr %8, align 8, !tbaa !12
  %119 = load i64, ptr %7, align 8, !tbaa !12
  %120 = sub i64 %118, %119
  store i64 %120, ptr %10, align 8, !tbaa !12
  br label %67, !llvm.loop !64

121:                                              ; preds = %67
  %122 = load i64, ptr %9, align 8, !tbaa !12
  %123 = load i64, ptr %7, align 8, !tbaa !12
  %124 = icmp ne i64 %122, %123
  br i1 %124, label %129, label %125

125:                                              ; preds = %121
  %126 = load i64, ptr %9, align 8, !tbaa !12
  %127 = load i64, ptr %8, align 8, !tbaa !12
  %128 = icmp ne i64 %126, %127
  br i1 %128, label %129, label %146

129:                                              ; preds = %125, %121
  %130 = load ptr, ptr %4, align 8, !tbaa !56
  %131 = getelementptr inbounds nuw %struct.H5FD_onion_archival_index_t, ptr %130, i32 0, i32 3
  %132 = load ptr, ptr %131, align 8, !tbaa !59
  %133 = load i64, ptr %7, align 8, !tbaa !12
  %134 = getelementptr inbounds nuw %struct.H5FD_onion_index_entry_t, ptr %132, i64 %133
  %135 = getelementptr inbounds nuw %struct.H5FD_onion_index_entry_t, ptr %134, i32 0, i32 0
  %136 = load i64, ptr %135, align 8, !tbaa !50
  %137 = load i64, ptr %5, align 8, !tbaa !12
  %138 = icmp eq i64 %136, %137
  br i1 %138, label %139, label %146

139:                                              ; preds = %129
  %140 = load ptr, ptr %4, align 8, !tbaa !56
  %141 = getelementptr inbounds nuw %struct.H5FD_onion_archival_index_t, ptr %140, i32 0, i32 3
  %142 = load ptr, ptr %141, align 8, !tbaa !59
  %143 = load i64, ptr %7, align 8, !tbaa !12
  %144 = getelementptr inbounds nuw %struct.H5FD_onion_index_entry_t, ptr %142, i64 %143
  %145 = load ptr, ptr %6, align 8, !tbaa !62
  store ptr %144, ptr %145, align 8, !tbaa !49
  store i32 1, ptr %12, align 4, !tbaa !16
  br label %146

146:                                              ; preds = %139, %129, %125
  br label %147

147:                                              ; preds = %146, %85, %63
  br label %148

148:                                              ; preds = %147, %19
  %149 = load i32, ptr %12, align 4, !tbaa !16
  call void @llvm.lifetime.end.p0(i64 4, ptr %12) #9
  call void @llvm.lifetime.end.p0(i64 8, ptr %11) #9
  call void @llvm.lifetime.end.p0(i64 8, ptr %10) #9
  call void @llvm.lifetime.end.p0(i64 8, ptr %9) #9
  call void @llvm.lifetime.end.p0(i64 8, ptr %8) #9
  call void @llvm.lifetime.end.p0(i64 8, ptr %7) #9
  ret i32 %149
}