; Function Attrs: nofree norecurse nosync nounwind memory(read, argmem: readwrite, inaccessiblemem: none) uwtable
define range(i32 0, 2) i32 @H5FD__onion_archival_index_find(ptr noundef readonly captures(none) %0, i64 noundef %1, ptr noundef writeonly captures(none) %2) local_unnamed_addr #8 {
  %4 = load i8, ptr @H5FD_init_g, align 1, !tbaa !3, !range !7, !noundef !8
  %5 = trunc nuw i8 %4 to i1
  %6 = load i8, ptr @H5_libterm_g, align 1, !range !7
  %7 = trunc nuw i8 %6 to i1
  %8 = xor i1 %7, true
  %9 = select i1 %5, i1 true, i1 %8
  br i1 %9, label %10, label %45, !prof !9

10:                                               ; preds = %3
  %11 = getelementptr inbounds nuw i8, ptr %0, i64 8
  %12 = load i64, ptr %11, align 8, !tbaa !55
  %13 = add i64 %12, -1
  %14 = icmp eq i64 %12, 0
  br i1 %14, label %45, label %15

15:                                               ; preds = %10
  %16 = getelementptr inbounds nuw i8, ptr %0, i64 16
  %17 = load ptr, ptr %16, align 8, !tbaa !54
  %18 = getelementptr inbounds nuw %struct.H5FD_onion_index_entry_t, ptr %17, i64 %13
  %19 = load i64, ptr %18, align 8, !tbaa !47
  %20 = icmp ugt i64 %1, %19
  br i1 %20, label %45, label %21

21:                                               ; preds = %15
  %22 = load i64, ptr %17, align 8, !tbaa !47
  %23 = icmp ult i64 %1, %22
  br i1 %23, label %45, label %.preheader

.preheader:                                       ; preds = %21
  %.not52 = icmp eq i64 %13, 0
  br i1 %.not52, label %._crit_edge, label %.lr.ph

.lr.ph:                                           ; preds = %.preheader, %39
  %.04055 = phi i64 [ %40, %39 ], [ %13, %.preheader ]
  %.04254 = phi i64 [ %.1, %39 ], [ %13, %.preheader ]
  %.04353 = phi i64 [ %.144, %39 ], [ 0, %.preheader ]
  %24 = lshr i64 %.04055, 1
  %25 = add i64 %24, %.04353
  %26 = getelementptr inbounds nuw %struct.H5FD_onion_index_entry_t, ptr %17, i64 %25
  %27 = load i64, ptr %26, align 8, !tbaa !47
  %28 = icmp eq i64 %27, %1
  br i1 %28, label %.sink.split, label %29

29:                                               ; preds = %.lr.ph
  %30 = icmp ult i64 %27, %1
  br i1 %30, label %31, label %35

31:                                               ; preds = %29
  %32 = icmp eq i64 %25, %.04254
  %33 = add i64 %25, 1
  %34 = select i1 %32, i64 %.04254, i64 %33
  br label %39

35:                                               ; preds = %29
  %36 = icmp eq i64 %.04055, 1
  %37 = add i64 %25, -1
  %38 = select i1 %36, i64 %.04353, i64 %37
  br label %39

39:                                               ; preds = %31, %35
  %.144 = phi i64 [ %34, %31 ], [ %.04353, %35 ]
  %.1 = phi i64 [ %.04254, %31 ], [ %38, %35 ]
  %40 = sub i64 %.1, %.144
  %.not = icmp eq i64 %40, 0
  br i1 %.not, label %._crit_edge, label %.lr.ph, !llvm.loop !57

._crit_edge:                                      ; preds = %39, %.preheader
  %.043.lcssa = phi i64 [ 0, %.preheader ], [ %.144, %39 ]
  %.042.lcssa = phi i64 [ 0, %.preheader ], [ %.1, %39 ]
  %.041.lcssa = phi i64 [ 0, %.preheader ], [ %25, %39 ]
  %.not47 = icmp eq i64 %.041.lcssa, %.043.lcssa
  %.not48 = icmp eq i64 %.041.lcssa, %.042.lcssa
  %or.cond = and i1 %.not47, %.not48
  br i1 %or.cond, label %45, label %41

41:                                               ; preds = %._crit_edge
  %42 = getelementptr inbounds nuw %struct.H5FD_onion_index_entry_t, ptr %17, i64 %.043.lcssa
  %43 = load i64, ptr %42, align 8, !tbaa !47
  %44 = icmp eq i64 %43, %1
  br i1 %44, label %.sink.split, label %45

.sink.split:                                      ; preds = %.lr.ph, %41
  %.lcssa.sink = phi ptr [ %42, %41 ], [ %26, %.lr.ph ]
  store ptr %.lcssa.sink, ptr %2, align 8, !tbaa !46
  br label %45

45:                                               ; preds = %.sink.split, %._crit_edge, %21, %15, %10, %41, %3
  %.0 = phi i32 [ 0, %41 ], [ 0, %3 ], [ 0, %10 ], [ 0, %15 ], [ 0, %21 ], [ 0, %._crit_edge ], [ 1, %.sink.split ]
  ret i32 %.0
}